target datalayout = "e-m:e-p270:32:32-p271:32:32-p272:64:64-i64:64-i128:128-f80:128-n8:16:32:64-S128"
target triple = "x86_64-pc-linux-gnu"

%struct.VP8LRefsCursor = type { ptr, ptr, ptr }
%struct.VP8LHistogram = type { ptr, [256 x i32], [256 x i32], [256 x i32], [40 x i32], i32, i32, i64, i64, i64, i64, [5 x i8] }
%struct.PixOrCopy = type { i8, i16, i32 }

; Function Attrs: inlinehint nounwind uwtable
define internal i32 @VP8LHistogramNumCodes(i32 noundef %0) #3 {
  %2 = alloca i32, align 4
  store i32 %0, ptr %2, align 4, !tbaa !14
  %3 = load i32, ptr %2, align 4, !tbaa !14
  %4 = icmp sgt i32 %3, 0
  br i1 %4, label %5, label %8

5:                                                ; preds = %1
  %6 = load i32, ptr %2, align 4, !tbaa !14
  %7 = shl i32 1, %6
  br label %9

8:                                                ; preds = %1
  br label %9

9:                                                ; preds = %8, %5
  %10 = phi i32 [ %7, %5 ], [ 0, %8 ]
  %11 = add nsw i32 280, %10
  ret i32 %11
}

; Function Attrs: inlinehint nounwind uwtable
define internal void @VP8LRefsCursorNext(ptr noundef %0) #3 {
  %2 = alloca ptr, align 8
  store ptr %0, ptr %2, align 8, !tbaa !3
  %3 = load ptr, ptr %2, align 8, !tbaa !3
  %4 = getelementptr inbounds nuw %struct.VP8LRefsCursor, ptr %3, i32 0, i32 0
  %5 = load ptr, ptr %4, align 8, !tbaa !9
  %6 = getelementptr inbounds nuw %struct.PixOrCopy, ptr %5, i32 1
  store ptr %6, ptr %4, align 8, !tbaa !9
  %7 = load ptr, ptr %2, align 8, !tbaa !3
  %8 = getelementptr inbounds nuw %struct.VP8LRefsCursor, ptr %7, i32 0, i32 2
  %9 = load ptr, ptr %8, align 8, !tbaa !20
  %10 = icmp eq ptr %6, %9
  br i1 %10, label %11, label %13

11:                                               ; preds = %1
  %12 = load ptr, ptr %2, align 8, !tbaa !3
  call void @VP8LRefsCursorNextBlock(ptr noundef %12)
  br label %13

13:                                               ; preds = %11, %1
  ret void
}

; Function Attrs: inlinehint nounwind uwtable
define internal i32 @VP8LRefsCursorOk(ptr noundef %0) #3 {
  %2 = alloca ptr, align 8
  store ptr %0, ptr %2, align 8, !tbaa !3
  %3 = load ptr, ptr %2, align 8, !tbaa !3
  %4 = getelementptr inbounds nuw %struct.VP8LRefsCursor, ptr %3, i32 0, i32 0
  %5 = load ptr, ptr %4, align 8, !tbaa !9
  %6 = icmp ne ptr %5, null
  %7 = zext i1 %6 to i32
  ret i32 %7
}

; Function Attrs: nounwind uwtable
define internal i32 @GetHistogramSize(i32 noundef %0) #0 {
  %2 = alloca i32, align 4
  %3 = alloca i32, align 4
  %4 = alloca i64, align 8
  store i32 %0, ptr %2, align 4, !tbaa !14
  call void @llvm.lifetime.start.p0(i64 4, ptr %3) #7
  %5 = load i32, ptr %2, align 4, !tbaa !14
  %6 = call i32 @VP8LHistogramNumCodes(i32 noundef %5)
  store i32 %6, ptr %3, align 4, !tbaa !14
  call void @llvm.lifetime.start.p0(i64 8, ptr %4) #7
  %7 = load i32, ptr %3, align 4, !tbaa !14
  %8 = sext i32 %7 to i64
  %9 = mul i64 4, %8
  %10 = add i64 3288, %9
  store i64 %10, ptr %4, align 8, !tbaa !30
  %11 = load i64, ptr %4, align 8, !tbaa !30
  %12 = trunc i64 %11 to i32
  call void @llvm.lifetime.end.p0(i64 8, ptr %4) #7
  call void @llvm.lifetime.end.p0(i64 4, ptr %3) #7
  ret i32 %12
}

; Function Attrs: nounwind uwtable
define hidden void @VP8LHistogramStoreRefs(ptr noundef %0, ptr noundef %1) #0 {
  %3 = alloca ptr, align 8
  %4 = alloca ptr, align 8
  %5 = alloca %struct.VP8LRefsCursor, align 8
  store ptr %0, ptr %3, align 8, !tbaa !7
  store ptr %1, ptr %4, align 8, !tbaa !3
  call void @llvm.lifetime.start.p0(i64 24, ptr %5) #7
  %6 = load ptr, ptr %3, align 8, !tbaa !7
  call void @VP8LRefsCursorInit(ptr dead_on_unwind writable sret(%struct.VP8LRefsCursor) align 8 %5, ptr noundef %6)
  br label %7

7:                                                ; preds = %10, %2
  %8 = call i32 @VP8LRefsCursorOk(ptr noundef %5)
  %9 = icmp ne i32 %8, 0
  br i1 %9, label %10, label %14

10:                                               ; preds = %7
  %11 = load ptr, ptr %4, align 8, !tbaa !3
  %12 = getelementptr inbounds nuw %struct.VP8LRefsCursor, ptr %5, i32 0, i32 0
  %13 = load ptr, ptr %12, align 8, !tbaa !9
  call void @VP8LHistogramAddSinglePixOrCopy(ptr noundef %11, ptr noundef %13, ptr noundef null, i32 noundef 0)
  call void @VP8LRefsCursorNext(ptr noundef %5)
  br label %7, !llvm.loop !12

14:                                               ; preds = %7
  call void @llvm.lifetime.end.p0(i64 24, ptr %5) #7
  ret void
}

; Function Attrs: nounwind uwtable
define internal void @HistogramClear(ptr noundef %0) #0 {
  %2 = alloca ptr, align 8
  %3 = alloca ptr, align 8
  %4 = alloca i32, align 4
  %5 = alloca i32, align 4
  store ptr %0, ptr %2, align 8, !tbaa !3
  call void @llvm.lifetime.start.p0(i64 8, ptr %3) #7
  %6 = load ptr, ptr %2, align 8, !tbaa !3
  %7 = getelementptr inbounds nuw %struct.VP8LHistogram, ptr %6, i32 0, i32 0
  %8 = load ptr, ptr %7, align 8, !tbaa !16
  store ptr %8, ptr %3, align 8, !tbaa !22
  call void @llvm.lifetime.start.p0(i64 4, ptr %4) #7
  %9 = load ptr, ptr %2, align 8, !tbaa !3
  %10 = getelementptr inbounds nuw %struct.VP8LHistogram, ptr %9, i32 0, i32 5
  %11 = load i32, ptr %10, align 8, !tbaa !21
  store i32 %11, ptr %4, align 4, !tbaa !14
  call void @llvm.lifetime.start.p0(i64 4, ptr %5) #7
  %12 = load i32, ptr %4, align 4, !tbaa !14
  %13 = call i32 @GetHistogramSize(i32 noundef %12)
  store i32 %13, ptr %5, align 4, !tbaa !14
  %14 = load ptr, ptr %2, align 8, !tbaa !3
  %15 = load i32, ptr %5, align 4, !tbaa !14
  %16 = sext i32 %15 to i64
  call void @llvm.memset.p0.i64(ptr align 8 %14, i8 0, i64 %16, i1 false)
  %17 = load i32, ptr %4, align 4, !tbaa !14
  %18 = load ptr, ptr %2, align 8, !tbaa !3
  %19 = getelementptr inbounds nuw %struct.VP8LHistogram, ptr %18, i32 0, i32 5
  store i32 %17, ptr %19, align 8, !tbaa !21
  %20 = load ptr, ptr %3, align 8, !tbaa !22
  %21 = load ptr, ptr %2, align 8, !tbaa !3
  %22 = getelementptr inbounds nuw %struct.VP8LHistogram, ptr %21, i32 0, i32 0
  store ptr %20, ptr %22, align 8, !tbaa !16
  call void @llvm.lifetime.end.p0(i64 4, ptr %5) #7
  call void @llvm.lifetime.end.p0(i64 4, ptr %4) #7
  call void @llvm.lifetime.end.p0(i64 8, ptr %3) #7
  ret void
}

; Function Attrs: nounwind uwtable
define hidden void @VP8LHistogramCreate(ptr noundef %0, ptr noundef %1, i32 noundef %2) #0 {
  %4 = alloca ptr, align 8
  %5 = alloca ptr, align 8
  %6 = alloca i32, align 4
  store ptr %0, ptr %4, align 8, !tbaa !3
  store ptr %1, ptr %5, align 8, !tbaa !7
  store i32 %2, ptr %6, align 4, !tbaa !14
  %7 = load i32, ptr %6, align 4, !tbaa !14
  %8 = icmp sge i32 %7, 0
  br i1 %8, label %9, label %13

9:                                                ; preds = %3
  %10 = load i32, ptr %6, align 4, !tbaa !14
  %11 = load ptr, ptr %4, align 8, !tbaa !3
  %12 = getelementptr inbounds nuw %struct.VP8LHistogram, ptr %11, i32 0, i32 5
  store i32 %10, ptr %12, align 8, !tbaa !21
  br label %13

13:                                               ; preds = %9, %3
  %14 = load ptr, ptr %4, align 8, !tbaa !3
  call void @HistogramClear(ptr noundef %14)
  %15 = load ptr, ptr %5, align 8, !tbaa !7
  %16 = load ptr, ptr %4, align 8, !tbaa !3
  call void @VP8LHistogramStoreRefs(ptr noundef %15, ptr noundef %16)
  ret void
}