; Function Attrs: nounwind uwtable
define hidden void @VP8LHistogramCreate(ptr noundef captures(none) %0, ptr noundef %1, i32 noundef %2) local_unnamed_addr #0 {
  %4 = alloca %struct.VP8LRefsCursor, align 8
  %5 = icmp sgt i32 %2, -1
  br i1 %5, label %6, label %._crit_edge

._crit_edge:                                      ; preds = %3
  %.phi.trans.insert = getelementptr inbounds nuw i8, ptr %0, i64 3240
  %.pre = load i32, ptr %.phi.trans.insert, align 8, !tbaa !24
  br label %6

6:                                                ; preds = %3, %._crit_edge
  %7 = phi i32 [ %.pre, %._crit_edge ], [ %2, %3 ]
  %8 = load ptr, ptr %0, align 8, !tbaa !18
  %9 = getelementptr inbounds nuw i8, ptr %0, i64 3240
  %10 = icmp sgt i32 %7, 0
  %11 = shl i32 4, %7
  %12 = add nuw i32 %11, 4408
  %13 = select i1 %10, i32 %12, i32 4408
  %14 = sext i32 %13 to i64
  tail call void @llvm.memset.p0.i64(ptr noundef nonnull align 8 dereferenceable(1) %0, i8 0, i64 %14, i1 false)
  store i32 %7, ptr %9, align 8, !tbaa !24
  store ptr %8, ptr %0, align 8, !tbaa !18
  call void @llvm.lifetime.start.p0(i64 24, ptr nonnull %4) #10
  call void @VP8LRefsCursorInit(ptr dead_on_unwind nonnull writable sret(%struct.VP8LRefsCursor) align 8 %4, ptr noundef %1) #10
  %.val3.i = load ptr, ptr %4, align 8, !tbaa !3
  %.not24.i = icmp eq ptr %.val3.i, null
  br i1 %.not24.i, label %VP8LHistogramStoreRefs.exit, label %.lr.ph.i

.lr.ph.i:                                         ; preds = %6
  %15 = getelementptr inbounds nuw i8, ptr %4, i64 16
  br label %16

16:                                               ; preds = %VP8LRefsCursorNext.exit.i, %.lr.ph.i
  %.val5.i = phi ptr [ %.val3.i, %.lr.ph.i ], [ %.val.i, %VP8LRefsCursorNext.exit.i ]
  call void @VP8LHistogramAddSinglePixOrCopy(ptr noundef nonnull %0, ptr noundef nonnull %.val5.i, ptr noundef null, i32 noundef 0)
  %17 = load ptr, ptr %4, align 8, !tbaa !3
  %18 = getelementptr inbounds nuw i8, ptr %17, i64 8
  store ptr %18, ptr %4, align 8, !tbaa !3
  %19 = load ptr, ptr %15, align 8, !tbaa !9
  %20 = icmp eq ptr %18, %19
  br i1 %20, label %21, label %VP8LRefsCursorNext.exit.i

21:                                               ; preds = %16
  call void @VP8LRefsCursorNextBlock(ptr noundef nonnull %4) #10
  %.val.pre.i = load ptr, ptr %4, align 8, !tbaa !3
  br label %VP8LRefsCursorNext.exit.i

VP8LRefsCursorNext.exit.i:                        ; preds = %21, %16
  %.val.i = phi ptr [ %18, %16 ], [ %.val.pre.i, %21 ]
  %.not2.i = icmp eq ptr %.val.i, null
  br i1 %.not2.i, label %VP8LHistogramStoreRefs.exit, label %16, !llvm.loop !10

VP8LHistogramStoreRefs.exit:                      ; preds = %VP8LRefsCursorNext.exit.i, %6
  call void @llvm.lifetime.end.p0(i64 24, ptr nonnull %4) #10
  ret void
}